target datalayout = "e-m:e-p270:32:32-p271:32:32-p272:64:64-i64:64-i128:128-f80:128-n8:16:32:64-S128"
target triple = "x86_64-pc-linux-gnu"

@progress_cb.symbols = internal constant [5 x i8] c".+*\0A\00", align 1

; Function Attrs: nounwind uwtable
define i32 @progress_cb(ptr noundef %0) #0 {
  %2 = alloca ptr, align 8
  %3 = alloca ptr, align 8
  %4 = alloca i32, align 4
  %5 = alloca i8, align 1
  store ptr %0, ptr %2, align 8, !tbaa !112
  call void @llvm.lifetime.start.p0(i64 8, ptr %3) #10
  %6 = load ptr, ptr %2, align 8, !tbaa !112
  %7 = call ptr @EVP_PKEY_CTX_get_app_data(ptr noundef %6)
  store ptr %7, ptr %3, align 8, !tbaa !14
  call void @llvm.lifetime.start.p0(i64 4, ptr %4) #10
  %8 = load ptr, ptr %2, align 8, !tbaa !112
  %9 = call i32 @EVP_PKEY_CTX_get_keygen_info(ptr noundef %8, i32 noundef 0)
  store i32 %9, ptr %4, align 4, !tbaa !3
  call void @llvm.lifetime.start.p0(i64 1, ptr %5) #10
  %10 = load i32, ptr %4, align 4, !tbaa !3
  %11 = icmp sge i32 %10, 0
  br i1 %11, label %12, label %22

12:                                               ; preds = %1
  %13 = load i32, ptr %4, align 4, !tbaa !3
  %14 = sext i32 %13 to i64
  %15 = icmp ule i64 %14, 4
  br i1 %15, label %16, label %22

16:                                               ; preds = %12
  %17 = load i32, ptr %4, align 4, !tbaa !3
  %18 = sext i32 %17 to i64
  %19 = getelementptr inbounds [5 x i8], ptr @progress_cb.symbols, i64 0, i64 %18
  %20 = load i8, ptr %19, align 1, !tbaa !29
  %21 = sext i8 %20 to i32
  br label %23

22:                                               ; preds = %12, %1
  br label %23

23:                                               ; preds = %22, %16
  %24 = phi i32 [ %21, %16 ], [ 63, %22 ]
  %25 = trunc i32 %24 to i8
  store i8 %25, ptr %5, align 1, !tbaa !29
  %26 = load ptr, ptr %3, align 8, !tbaa !14
  %27 = call i32 @BIO_write(ptr noundef %26, ptr noundef %5, i32 noundef 1)
  %28 = load ptr, ptr %3, align 8, !tbaa !14
  %29 = call i64 @BIO_ctrl(ptr noundef %28, i32 noundef 11, i64 noundef 0, ptr noundef null)
  call void @llvm.lifetime.end.p0(i64 1, ptr %5) #10
  call void @llvm.lifetime.end.p0(i64 4, ptr %4) #10
  call void @llvm.lifetime.end.p0(i64 8, ptr %3) #10
  ret i32 1
}