; Function Attrs: nounwind uwtable
define noundef i32 @progress_cb(ptr noundef %0) local_unnamed_addr #0 {
  %2 = alloca i8, align 1
  %3 = tail call ptr @EVP_PKEY_CTX_get_app_data(ptr noundef %0) #6
  %4 = tail call i32 @EVP_PKEY_CTX_get_keygen_info(ptr noundef %0, i32 noundef 0) #6
  call void @llvm.lifetime.start.p0(i64 1, ptr nonnull %2) #6
  %5 = icmp ult i32 %4, 5
  br i1 %5, label %6, label %10

6:                                                ; preds = %1
  %7 = zext nneg i32 %4 to i64
  %8 = getelementptr inbounds nuw [5 x i8], ptr @progress_cb.symbols, i64 0, i64 %7
  %9 = load i8, ptr %8, align 1, !tbaa !15
  br label %10

10:                                               ; preds = %1, %6
  %11 = phi i8 [ %9, %6 ], [ 63, %1 ]
  store i8 %11, ptr %2, align 1, !tbaa !15
  %12 = call i32 @BIO_write(ptr noundef %3, ptr noundef nonnull %2, i32 noundef 1) #6
  %13 = call i64 @BIO_ctrl(ptr noundef %3, i32 noundef 11, i64 noundef 0, ptr noundef null) #6
  call void @llvm.lifetime.end.p0(i64 1, ptr nonnull %2) #6
  ret i32 1
}